target datalayout = "e-m:e-p270:32:32-p271:32:32-p272:64:64-i64:64-i128:128-f80:128-n8:16:32:64-S128"
target triple = "x86_64-pc-linux-gnu"

@data_someip_eventgroups = internal global ptr null, align 8

; Function Attrs: null_pointer_is_valid sspstrong uwtable
define hidden ptr @someip_lookup_eventgroup_name(i16 noundef zeroext %0, i16 noundef zeroext %1) #0 {
  %3 = alloca ptr, align 8
  %4 = alloca i16, align 2
  %5 = alloca i16, align 2
  store i16 %0, ptr %4, align 2
  store i16 %1, ptr %5, align 2
  %6 = load ptr, ptr @data_someip_eventgroups, align 8
  %7 = icmp eq ptr %6, null
  br i1 %7, label %8, label %9

8:                                                ; preds = %2
  store ptr null, ptr %3, align 8
  br label %20

9:                                                ; preds = %2
  %10 = load ptr, ptr @data_someip_eventgroups, align 8
  %11 = load i16, ptr %4, align 2
  %12 = zext i16 %11 to i32
  %13 = shl i32 %12, 16
  %14 = load i16, ptr %5, align 2
  %15 = zext i16 %14 to i32
  %16 = or i32 %13, %15
  %17 = zext i32 %16 to i64
  %18 = inttoptr i64 %17 to ptr
  %19 = call ptr @g_hash_table_lookup(ptr noundef %10, ptr noundef %18)
  store ptr %19, ptr %3, align 8
  br label %20

20:                                               ; preds = %9, %8
  %21 = load ptr, ptr %3, align 8
  ret ptr %21
}