; Function Attrs: null_pointer_is_valid sspstrong uwtable
define hidden ptr @someip_lookup_eventgroup_name(i16 noundef zeroext %0, i16 noundef zeroext %1) local_unnamed_addr #0 {
  %3 = load ptr, ptr @data_someip_eventgroups, align 8
  %4 = icmp eq ptr %3, null
  br i1 %4, label %12, label %5

5:                                                ; preds = %2
  %6 = zext i16 %0 to i64
  %7 = shl nuw nsw i64 %6, 16
  %8 = zext i16 %1 to i64
  %9 = or disjoint i64 %7, %8
  %10 = inttoptr i64 %9 to ptr
  %11 = tail call ptr @g_hash_table_lookup(ptr noundef nonnull %3, ptr noundef %10)
  br label %12

12:                                               ; preds = %2, %5
  %.0 = phi ptr [ %11, %5 ], [ null, %2 ]
  ret ptr %.0
}